target datalayout = "e-m:e-p270:32:32-p271:32:32-p272:64:64-i64:64-i128:128-f80:128-n8:16:32:64-S128"
target triple = "x86_64-pc-linux-gnu"

%struct.prov_drbg_st = type { ptr, ptr, ptr, ptr, ptr, ptr, ptr, ptr, ptr, ptr, ptr, ptr, ptr, ptr, i32, i16, i32, i64, i64, i64, i64, i64, i64, i64, i32, i32, i64, i64, i32, i32, i32, i64, i32, ptr, ptr, ptr, ptr, ptr, ptr }

@.str = private unnamed_addr constant [55 x i8] c"../openssl/providers/implementations/rands/drbg_hash.c\00", align 1

; Function Attrs: nounwind uwtable
define internal i32 @drbg_hash_new(ptr noundef %0) #0 {
  %2 = alloca i32, align 4
  %3 = alloca ptr, align 8
  %4 = alloca ptr, align 8
  %5 = alloca i32, align 4
  store ptr %0, ptr %3, align 8, !tbaa !9
  call void @llvm.lifetime.start.p0(i64 8, ptr %4) #4
  %6 = call noalias ptr @CRYPTO_secure_zalloc(i64 noundef 376, ptr noundef @.str, i32 noundef 426)
  store ptr %6, ptr %4, align 8, !tbaa !17
  %7 = load ptr, ptr %4, align 8, !tbaa !17
  %8 = icmp eq ptr %7, null
  br i1 %8, label %9, label %10

9:                                                ; preds = %1
  store i32 0, ptr %2, align 4
  store i32 1, ptr %5, align 4
  br label %26

10:                                               ; preds = %1
  %11 = load ptr, ptr %4, align 8, !tbaa !17
  %12 = load ptr, ptr %3, align 8, !tbaa !9
  %13 = getelementptr inbounds nuw %struct.prov_drbg_st, ptr %12, i32 0, i32 33
  store ptr %11, ptr %13, align 8, !tbaa !11
  %14 = load ptr, ptr %3, align 8, !tbaa !9
  %15 = getelementptr inbounds nuw %struct.prov_drbg_st, ptr %14, i32 0, i32 31
  store i64 111, ptr %15, align 8, !tbaa !38
  %16 = load ptr, ptr %3, align 8, !tbaa !9
  %17 = getelementptr inbounds nuw %struct.prov_drbg_st, ptr %16, i32 0, i32 19
  store i64 2147483647, ptr %17, align 8, !tbaa !39
  %18 = load ptr, ptr %3, align 8, !tbaa !9
  %19 = getelementptr inbounds nuw %struct.prov_drbg_st, ptr %18, i32 0, i32 21
  store i64 2147483647, ptr %19, align 8, !tbaa !40
  %20 = load ptr, ptr %3, align 8, !tbaa !9
  %21 = getelementptr inbounds nuw %struct.prov_drbg_st, ptr %20, i32 0, i32 22
  store i64 2147483647, ptr %21, align 8, !tbaa !41
  %22 = load ptr, ptr %3, align 8, !tbaa !9
  %23 = getelementptr inbounds nuw %struct.prov_drbg_st, ptr %22, i32 0, i32 23
  store i64 2147483647, ptr %23, align 8, !tbaa !42
  %24 = load ptr, ptr %3, align 8, !tbaa !9
  %25 = getelementptr inbounds nuw %struct.prov_drbg_st, ptr %24, i32 0, i32 17
  store i64 65536, ptr %25, align 8, !tbaa !43
  store i32 1, ptr %2, align 4
  store i32 1, ptr %5, align 4
  br label %26

26:                                               ; preds = %10, %9
  call void @llvm.lifetime.end.p0(i64 8, ptr %4) #4
  %27 = load i32, ptr %2, align 4
  ret i32 %27
}