; Function Attrs: nounwind uwtable
define internal range(i32 0, 2) i32 @drbg_hash_new(ptr noundef writeonly captures(none) %0) #0 {
  %2 = tail call noalias ptr @CRYPTO_secure_zalloc(i64 noundef 376, ptr noundef nonnull @.str, i32 noundef 426) #6
  %3 = icmp eq ptr %2, null
  br i1 %3, label %12, label %4

4:                                                ; preds = %1
  %5 = getelementptr inbounds nuw i8, ptr %0, i64 240
  store ptr %2, ptr %5, align 8, !tbaa !3
  %6 = getelementptr inbounds nuw i8, ptr %0, i64 224
  store i64 111, ptr %6, align 8, !tbaa !25
  %7 = getelementptr inbounds nuw i8, ptr %0, i64 144
  store i64 2147483647, ptr %7, align 8, !tbaa !26
  %8 = getelementptr inbounds nuw i8, ptr %0, i64 160
  store i64 2147483647, ptr %8, align 8, !tbaa !27
  %9 = getelementptr inbounds nuw i8, ptr %0, i64 168
  store i64 2147483647, ptr %9, align 8, !tbaa !28
  %10 = getelementptr inbounds nuw i8, ptr %0, i64 176
  store i64 2147483647, ptr %10, align 8, !tbaa !29
  %11 = getelementptr inbounds nuw i8, ptr %0, i64 128
  store i64 65536, ptr %11, align 8, !tbaa !30
  br label %12

12:                                               ; preds = %1, %4
  %.0 = phi i32 [ 1, %4 ], [ 0, %1 ]
  ret i32 %.0
}